target datalayout = "e-m:e-p270:32:32-p271:32:32-p272:64:64-i64:64-i128:128-f80:128-n8:16:32:64-S128"
target triple = "x86_64-pc-linux-gnu"

%struct.AVRational = type { i32, i32 }
%struct.AVChannelLayout = type { i32, i32, %union.anon.0, ptr }
%union.anon.0 = type { i64 }
%struct.AVFrame = type { [8 x ptr], [8 x i32], ptr, i32, i32, i32, i32, i32, %struct.AVRational, i64, i64, %struct.AVRational, i32, ptr, i32, i32, [8 x ptr], ptr, i32, ptr, i32, i32, i32, i32, i32, i32, i32, i64, ptr, i32, ptr, ptr, i64, i64, i64, i64, ptr, %struct.AVChannelLayout, i64 }

; Function Attrs: alwaysinline nounwind willreturn memory(none) uwtable
define internal i32 @av_clip_uintp2_c(i32 noundef %0, i32 noundef %1) #9 {
  %3 = alloca i32, align 4
  %4 = alloca i32, align 4
  %5 = alloca i32, align 4
  store i32 %0, ptr %4, align 4, !tbaa !49
  store i32 %1, ptr %5, align 4, !tbaa !49
  %6 = load i32, ptr %4, align 4, !tbaa !49
  %7 = load i32, ptr %5, align 4, !tbaa !49
  %8 = shl i32 1, %7
  %9 = sub i32 %8, 1
  %10 = xor i32 %9, -1
  %11 = and i32 %6, %10
  %12 = icmp ne i32 %11, 0
  br i1 %12, label %13, label %21

13:                                               ; preds = %2
  %14 = load i32, ptr %4, align 4, !tbaa !49
  %15 = xor i32 %14, -1
  %16 = ashr i32 %15, 31
  %17 = load i32, ptr %5, align 4, !tbaa !49
  %18 = shl i32 1, %17
  %19 = sub i32 %18, 1
  %20 = and i32 %16, %19
  store i32 %20, ptr %3, align 4
  br label %23

21:                                               ; preds = %2
  %22 = load i32, ptr %4, align 4, !tbaa !49
  store i32 %22, ptr %3, align 4
  br label %23

23:                                               ; preds = %21, %13
  %24 = load i32, ptr %3, align 4
  ret i32 %24
}

; Function Attrs: inlinehint nounwind uwtable
define internal void @process_bayer(ptr noundef %0, i32 noundef %1) #8 {
  %3 = alloca ptr, align 8
  %4 = alloca i32, align 4
  %5 = alloca i32, align 4
  %6 = alloca ptr, align 8
  %7 = alloca ptr, align 8
  %8 = alloca ptr, align 8
  %9 = alloca ptr, align 8
  %10 = alloca i32, align 4
  %11 = alloca i32, align 4
  %12 = alloca i32, align 4
  %13 = alloca i32, align 4
  %14 = alloca i32, align 4
  %15 = alloca i32, align 4
  %16 = alloca i32, align 4
  %17 = alloca i32, align 4
  %18 = alloca i32, align 4
  %19 = alloca i32, align 4
  %20 = alloca i32, align 4
  %21 = alloca i32, align 4
  %22 = alloca i32, align 4
  store ptr %0, ptr %3, align 8, !tbaa !55
  store i32 %1, ptr %4, align 4, !tbaa !49
  call void @llvm.lifetime.start.p0(i64 4, ptr %5) #11
  %23 = load ptr, ptr %3, align 8, !tbaa !55
  %24 = getelementptr inbounds nuw %struct.AVFrame, ptr %23, i32 0, i32 1
  %25 = getelementptr inbounds [8 x i32], ptr %24, i64 0, i64 0
  %26 = load i32, ptr %25, align 8, !tbaa !49
  store i32 %26, ptr %5, align 4, !tbaa !49
  call void @llvm.lifetime.start.p0(i64 8, ptr %6) #11
  %27 = load ptr, ptr %3, align 8, !tbaa !55
  %28 = getelementptr inbounds nuw %struct.AVFrame, ptr %27, i32 0, i32 0
  %29 = getelementptr inbounds [8 x ptr], ptr %28, i64 0, i64 0
  %30 = load ptr, ptr %29, align 8, !tbaa !91
  store ptr %30, ptr %6, align 8, !tbaa !100
  call void @llvm.lifetime.start.p0(i64 8, ptr %7) #11
  %31 = load ptr, ptr %3, align 8, !tbaa !55
  %32 = getelementptr inbounds nuw %struct.AVFrame, ptr %31, i32 0, i32 0
  %33 = getelementptr inbounds [8 x ptr], ptr %32, i64 0, i64 0
  %34 = load ptr, ptr %33, align 8, !tbaa !91
  %35 = getelementptr inbounds i8, ptr %34, i64 2
  store ptr %35, ptr %7, align 8, !tbaa !100
  call void @llvm.lifetime.start.p0(i64 8, ptr %8) #11
  %36 = load ptr, ptr %3, align 8, !tbaa !55
  %37 = getelementptr inbounds nuw %struct.AVFrame, ptr %36, i32 0, i32 0
  %38 = getelementptr inbounds [8 x ptr], ptr %37, i64 0, i64 0
  %39 = load ptr, ptr %38, align 8, !tbaa !91
  %40 = load ptr, ptr %3, align 8, !tbaa !55
  %41 = getelementptr inbounds nuw %struct.AVFrame, ptr %40, i32 0, i32 1
  %42 = getelementptr inbounds [8 x i32], ptr %41, i64 0, i64 0
  %43 = load i32, ptr %42, align 8, !tbaa !49
  %44 = sext i32 %43 to i64
  %45 = getelementptr inbounds i8, ptr %39, i64 %44
  store ptr %45, ptr %8, align 8, !tbaa !100
  call void @llvm.lifetime.start.p0(i64 8, ptr %9) #11
  %46 = load ptr, ptr %3, align 8, !tbaa !55
  %47 = getelementptr inbounds nuw %struct.AVFrame, ptr %46, i32 0, i32 0
  %48 = getelementptr inbounds [8 x ptr], ptr %47, i64 0, i64 0
  %49 = load ptr, ptr %48, align 8, !tbaa !91
  %50 = load ptr, ptr %3, align 8, !tbaa !55
  %51 = getelementptr inbounds nuw %struct.AVFrame, ptr %50, i32 0, i32 1
  %52 = getelementptr inbounds [8 x i32], ptr %51, i64 0, i64 0
  %53 = load i32, ptr %52, align 8, !tbaa !49
  %54 = sext i32 %53 to i64
  %55 = getelementptr inbounds i8, ptr %49, i64 %54
  %56 = getelementptr inbounds i8, ptr %55, i64 2
  store ptr %56, ptr %9, align 8, !tbaa !100
  call void @llvm.lifetime.start.p0(i64 4, ptr %10) #11
  %57 = load i32, ptr %4, align 4, !tbaa !49
  %58 = sub nsw i32 %57, 1
  %59 = shl i32 1, %58
  store i32 %59, ptr %10, align 4, !tbaa !49
  call void @llvm.lifetime.start.p0(i64 4, ptr %11) #11
  %60 = load i32, ptr %4, align 4, !tbaa !49
  %61 = sub nsw i32 16, %60
  %62 = shl i32 1, %61
  store i32 %62, ptr %11, align 4, !tbaa !49
  call void @llvm.lifetime.start.p0(i64 4, ptr %12) #11
  store i32 0, ptr %12, align 4, !tbaa !49
  br label %63

63:                                               ; preds = %185, %2
  %64 = load i32, ptr %12, align 4, !tbaa !49
  %65 = load ptr, ptr %3, align 8, !tbaa !55
  %66 = getelementptr inbounds nuw %struct.AVFrame, ptr %65, i32 0, i32 4
  %67 = load i32, ptr %66, align 4, !tbaa !94
  %68 = ashr i32 %67, 1
  %69 = icmp slt i32 %64, %68
  br i1 %69, label %71, label %70

70:                                               ; preds = %63
  store i32 2, ptr %13, align 4
  call void @llvm.lifetime.end.p0(i64 4, ptr %12) #11
  br label %188

71:                                               ; preds = %63
  call void @llvm.lifetime.start.p0(i64 4, ptr %14) #11
  store i32 0, ptr %14, align 4, !tbaa !49
  br label %72

72:                                               ; preds = %165, %71
  %73 = load i32, ptr %14, align 4, !tbaa !49
  %74 = load ptr, ptr %3, align 8, !tbaa !55
  %75 = getelementptr inbounds nuw %struct.AVFrame, ptr %74, i32 0, i32 3
  %76 = load i32, ptr %75, align 8, !tbaa !99
  %77 = icmp slt i32 %73, %76
  br i1 %77, label %79, label %78

78:                                               ; preds = %72
  store i32 5, ptr %13, align 4
  call void @llvm.lifetime.end.p0(i64 4, ptr %14) #11
  br label %168

79:                                               ; preds = %72
  call void @llvm.lifetime.start.p0(i64 4, ptr %15) #11
  call void @llvm.lifetime.start.p0(i64 4, ptr %16) #11
  call void @llvm.lifetime.start.p0(i64 4, ptr %17) #11
  call void @llvm.lifetime.start.p0(i64 4, ptr %18) #11
  call void @llvm.lifetime.start.p0(i64 4, ptr %19) #11
  call void @llvm.lifetime.start.p0(i64 4, ptr %20) #11
  call void @llvm.lifetime.start.p0(i64 4, ptr %21) #11
  call void @llvm.lifetime.start.p0(i64 4, ptr %22) #11
  %80 = load ptr, ptr %6, align 8, !tbaa !100
  %81 = load i32, ptr %14, align 4, !tbaa !49
  %82 = sext i32 %81 to i64
  %83 = getelementptr inbounds i16, ptr %80, i64 %82
  %84 = load i16, ptr %83, align 2, !tbaa !65
  %85 = zext i16 %84 to i32
  store i32 %85, ptr %19, align 4, !tbaa !49
  %86 = load ptr, ptr %7, align 8, !tbaa !100
  %87 = load i32, ptr %14, align 4, !tbaa !49
  %88 = sext i32 %87 to i64
  %89 = getelementptr inbounds i16, ptr %86, i64 %88
  %90 = load i16, ptr %89, align 2, !tbaa !65
  %91 = zext i16 %90 to i32
  store i32 %91, ptr %20, align 4, !tbaa !49
  %92 = load ptr, ptr %8, align 8, !tbaa !100
  %93 = load i32, ptr %14, align 4, !tbaa !49
  %94 = sext i32 %93 to i64
  %95 = getelementptr inbounds i16, ptr %92, i64 %94
  %96 = load i16, ptr %95, align 2, !tbaa !65
  %97 = zext i16 %96 to i32
  store i32 %97, ptr %21, align 4, !tbaa !49
  %98 = load ptr, ptr %9, align 8, !tbaa !100
  %99 = load i32, ptr %14, align 4, !tbaa !49
  %100 = sext i32 %99 to i64
  %101 = getelementptr inbounds i16, ptr %98, i64 %100
  %102 = load i16, ptr %101, align 2, !tbaa !65
  %103 = zext i16 %102 to i32
  store i32 %103, ptr %22, align 4, !tbaa !49
  %104 = load i32, ptr %10, align 4, !tbaa !49
  %105 = load i32, ptr %22, align 4, !tbaa !49
  %106 = sub nsw i32 %105, %104
  store i32 %106, ptr %22, align 4, !tbaa !49
  %107 = load i32, ptr %20, align 4, !tbaa !49
  %108 = load i32, ptr %10, align 4, !tbaa !49
  %109 = sub nsw i32 %107, %108
  %110 = mul nsw i32 %109, 2
  %111 = load i32, ptr %19, align 4, !tbaa !49
  %112 = add nsw i32 %110, %111
  store i32 %112, ptr %15, align 4, !tbaa !49
  %113 = load i32, ptr %19, align 4, !tbaa !49
  %114 = load i32, ptr %22, align 4, !tbaa !49
  %115 = add nsw i32 %113, %114
  store i32 %115, ptr %16, align 4, !tbaa !49
  %116 = load i32, ptr %19, align 4, !tbaa !49
  %117 = load i32, ptr %22, align 4, !tbaa !49
  %118 = sub nsw i32 %116, %117
  store i32 %118, ptr %17, align 4, !tbaa !49
  %119 = load i32, ptr %21, align 4, !tbaa !49
  %120 = load i32, ptr %10, align 4, !tbaa !49
  %121 = sub nsw i32 %119, %120
  %122 = mul nsw i32 %121, 2
  %123 = load i32, ptr %19, align 4, !tbaa !49
  %124 = add nsw i32 %122, %123
  store i32 %124, ptr %18, align 4, !tbaa !49
  %125 = load i32, ptr %15, align 4, !tbaa !49
  %126 = load i32, ptr %11, align 4, !tbaa !49
  %127 = mul nsw i32 %125, %126
  %128 = call i32 @av_clip_uintp2_c(i32 noundef %127, i32 noundef 16) #13
  store i32 %128, ptr %15, align 4, !tbaa !49
  %129 = load i32, ptr %16, align 4, !tbaa !49
  %130 = load i32, ptr %11, align 4, !tbaa !49
  %131 = mul nsw i32 %129, %130
  %132 = call i32 @av_clip_uintp2_c(i32 noundef %131, i32 noundef 16) #13
  store i32 %132, ptr %16, align 4, !tbaa !49
  %133 = load i32, ptr %17, align 4, !tbaa !49
  %134 = load i32, ptr %11, align 4, !tbaa !49
  %135 = mul nsw i32 %133, %134
  %136 = call i32 @av_clip_uintp2_c(i32 noundef %135, i32 noundef 16) #13
  store i32 %136, ptr %17, align 4, !tbaa !49
  %137 = load i32, ptr %18, align 4, !tbaa !49
  %138 = load i32, ptr %11, align 4, !tbaa !49
  %139 = mul nsw i32 %137, %138
  %140 = call i32 @av_clip_uintp2_c(i32 noundef %139, i32 noundef 16) #13
  store i32 %140, ptr %18, align 4, !tbaa !49
  %141 = load i32, ptr %15, align 4, !tbaa !49
  %142 = trunc i32 %141 to i16
  %143 = load ptr, ptr %6, align 8, !tbaa !100
  %144 = load i32, ptr %14, align 4, !tbaa !49
  %145 = sext i32 %144 to i64
  %146 = getelementptr inbounds i16, ptr %143, i64 %145
  store i16 %142, ptr %146, align 2, !tbaa !65
  %147 = load i32, ptr %16, align 4, !tbaa !49
  %148 = trunc i32 %147 to i16
  %149 = load ptr, ptr %7, align 8, !tbaa !100
  %150 = load i32, ptr %14, align 4, !tbaa !49
  %151 = sext i32 %150 to i64
  %152 = getelementptr inbounds i16, ptr %149, i64 %151
  store i16 %148, ptr %152, align 2, !tbaa !65
  %153 = load i32, ptr %17, align 4, !tbaa !49
  %154 = trunc i32 %153 to i16
  %155 = load ptr, ptr %8, align 8, !tbaa !100
  %156 = load i32, ptr %14, align 4, !tbaa !49
  %157 = sext i32 %156 to i64
  %158 = getelementptr inbounds i16, ptr %155, i64 %157
  store i16 %154, ptr %158, align 2, !tbaa !65
  %159 = load i32, ptr %18, align 4, !tbaa !49
  %160 = trunc i32 %159 to i16
  %161 = load ptr, ptr %9, align 8, !tbaa !100
  %162 = load i32, ptr %14, align 4, !tbaa !49
  %163 = sext i32 %162 to i64
  %164 = getelementptr inbounds i16, ptr %161, i64 %163
  store i16 %160, ptr %164, align 2, !tbaa !65
  call void @llvm.lifetime.end.p0(i64 4, ptr %22) #11
  call void @llvm.lifetime.end.p0(i64 4, ptr %21) #11
  call void @llvm.lifetime.end.p0(i64 4, ptr %20) #11
  call void @llvm.lifetime.end.p0(i64 4, ptr %19) #11
  call void @llvm.lifetime.end.p0(i64 4, ptr %18) #11
  call void @llvm.lifetime.end.p0(i64 4, ptr %17) #11
  call void @llvm.lifetime.end.p0(i64 4, ptr %16) #11
  call void @llvm.lifetime.end.p0(i64 4, ptr %15) #11
  br label %165

165:                                              ; preds = %79
  %166 = load i32, ptr %14, align 4, !tbaa !49
  %167 = add nsw i32 %166, 2
  store i32 %167, ptr %14, align 4, !tbaa !49
  br label %72, !llvm.loop !186

168:                                              ; preds = %78
  %169 = load i32, ptr %5, align 4, !tbaa !49
  %170 = load ptr, ptr %6, align 8, !tbaa !100
  %171 = sext i32 %169 to i64
  %172 = getelementptr inbounds i16, ptr %170, i64 %171
  store ptr %172, ptr %6, align 8, !tbaa !100
  %173 = load i32, ptr %5, align 4, !tbaa !49
  %174 = load ptr, ptr %7, align 8, !tbaa !100
  %175 = sext i32 %173 to i64
  %176 = getelementptr inbounds i16, ptr %174, i64 %175
  store ptr %176, ptr %7, align 8, !tbaa !100
  %177 = load i32, ptr %5, align 4, !tbaa !49
  %178 = load ptr, ptr %8, align 8, !tbaa !100
  %179 = sext i32 %177 to i64
  %180 = getelementptr inbounds i16, ptr %178, i64 %179
  store ptr %180, ptr %8, align 8, !tbaa !100
  %181 = load i32, ptr %5, align 4, !tbaa !49
  %182 = load ptr, ptr %9, align 8, !tbaa !100
  %183 = sext i32 %181 to i64
  %184 = getelementptr inbounds i16, ptr %182, i64 %183
  store ptr %184, ptr %9, align 8, !tbaa !100
  br label %185

185:                                              ; preds = %168
  %186 = load i32, ptr %12, align 4, !tbaa !49
  %187 = add nsw i32 %186, 1
  store i32 %187, ptr %12, align 4, !tbaa !49
  br label %63, !llvm.loop !187

188:                                              ; preds = %70
  call void @llvm.lifetime.end.p0(i64 4, ptr %11) #11
  call void @llvm.lifetime.end.p0(i64 4, ptr %10) #11
  call void @llvm.lifetime.end.p0(i64 8, ptr %9) #11
  call void @llvm.lifetime.end.p0(i64 8, ptr %8) #11
  call void @llvm.lifetime.end.p0(i64 8, ptr %7) #11
  call void @llvm.lifetime.end.p0(i64 8, ptr %6) #11
  call void @llvm.lifetime.end.p0(i64 4, ptr %5) #11
  ret void
}