; Function Attrs: inlinehint nofree norecurse nosync nounwind memory(readwrite, inaccessiblemem: none) uwtable
define internal fastcc void @process_bayer(ptr noundef readonly captures(none) %0, i32 noundef %1) unnamed_addr #7 {
  %3 = getelementptr inbounds nuw i8, ptr %0, i64 64
  %4 = load i32, ptr %3, align 8, !tbaa !53
  %5 = sext i32 %4 to i64
  %6 = add nsw i32 %1, -1
  %7 = shl nuw i32 1, %6
  %8 = sub nsw i32 16, %1
  %9 = getelementptr inbounds nuw i8, ptr %0, i64 108
  %10 = load i32, ptr %9, align 4, !tbaa !90
  %11 = ashr i32 %10, 1
  %12 = icmp sgt i32 %11, 0
  br i1 %12, label %.preheader.lr.ph, label %._crit_edge82

.preheader.lr.ph:                                 ; preds = %2
  %13 = getelementptr inbounds nuw i8, ptr %0, i64 104
  %14 = load i32, ptr %13, align 8, !tbaa !95
  %15 = icmp sgt i32 %14, 0
  br i1 %15, label %.preheader.us.preheader, label %._crit_edge82

.preheader.us.preheader:                          ; preds = %.preheader.lr.ph
  %16 = load ptr, ptr %0, align 8, !tbaa !84
  %17 = getelementptr inbounds nuw i8, ptr %16, i64 2
  %18 = getelementptr inbounds i8, ptr %16, i64 %5
  %19 = getelementptr inbounds nuw i8, ptr %18, i64 2
  %20 = zext nneg i32 %14 to i64
  br label %.preheader.us

.preheader.us:                                    ; preds = %.preheader.us.preheader, %._crit_edge.us
  %.081.us = phi ptr [ %60, %._crit_edge.us ], [ %16, %.preheader.us.preheader ]
  %.06280.us = phi ptr [ %61, %._crit_edge.us ], [ %17, %.preheader.us.preheader ]
  %.06379.us = phi ptr [ %62, %._crit_edge.us ], [ %18, %.preheader.us.preheader ]
  %.06478.us = phi ptr [ %63, %._crit_edge.us ], [ %19, %.preheader.us.preheader ]
  %.06577.us = phi i32 [ %64, %._crit_edge.us ], [ 0, %.preheader.us.preheader ]
  br label %21

21:                                               ; preds = %.preheader.us, %21
  %indvars.iv = phi i64 [ 0, %.preheader.us ], [ %indvars.iv.next, %21 ]
  %22 = getelementptr inbounds nuw i16, ptr %.081.us, i64 %indvars.iv
  %23 = load i16, ptr %22, align 2, !tbaa !99
  %24 = zext i16 %23 to i32
  %25 = getelementptr inbounds nuw i16, ptr %.06280.us, i64 %indvars.iv
  %26 = load i16, ptr %25, align 2, !tbaa !99
  %27 = zext i16 %26 to i32
  %28 = getelementptr inbounds nuw i16, ptr %.06379.us, i64 %indvars.iv
  %29 = load i16, ptr %28, align 2, !tbaa !99
  %30 = zext i16 %29 to i32
  %31 = getelementptr inbounds nuw i16, ptr %.06478.us, i64 %indvars.iv
  %32 = load i16, ptr %31, align 2, !tbaa !99
  %33 = zext i16 %32 to i32
  %34 = sub nsw i32 %33, %7
  %35 = sub nsw i32 %27, %7
  %36 = shl nsw i32 %35, 1
  %37 = add nsw i32 %36, %24
  %38 = add nsw i32 %34, %24
  %39 = sub nsw i32 %24, %34
  %40 = sub nsw i32 %30, %7
  %41 = shl nsw i32 %40, 1
  %42 = add nsw i32 %41, %24
  %43 = shl i32 %37, %8
  %44 = tail call i32 @llvm.smax.i32(i32 %43, i32 0)
  %45 = tail call i32 @llvm.umin.i32(i32 %44, i32 65535)
  %46 = shl i32 %38, %8
  %47 = tail call i32 @llvm.smax.i32(i32 %46, i32 0)
  %48 = tail call i32 @llvm.umin.i32(i32 %47, i32 65535)
  %49 = shl i32 %39, %8
  %50 = tail call i32 @llvm.smax.i32(i32 %49, i32 0)
  %51 = tail call i32 @llvm.umin.i32(i32 %50, i32 65535)
  %52 = shl i32 %42, %8
  %53 = tail call i32 @llvm.smax.i32(i32 %52, i32 0)
  %54 = tail call i32 @llvm.umin.i32(i32 %53, i32 65535)
  %55 = trunc nuw i32 %45 to i16
  store i16 %55, ptr %22, align 2, !tbaa !99
  %56 = trunc nuw i32 %48 to i16
  store i16 %56, ptr %25, align 2, !tbaa !99
  %57 = trunc nuw i32 %51 to i16
  store i16 %57, ptr %28, align 2, !tbaa !99
  %58 = trunc nuw i32 %54 to i16
  store i16 %58, ptr %31, align 2, !tbaa !99
  %indvars.iv.next = add nuw nsw i64 %indvars.iv, 2
  %59 = icmp samesign ult i64 %indvars.iv.next, %20
  br i1 %59, label %21, label %._crit_edge.us, !llvm.loop !160

._crit_edge.us:                                   ; preds = %21
  %60 = getelementptr inbounds i16, ptr %.081.us, i64 %5
  %61 = getelementptr inbounds i16, ptr %.06280.us, i64 %5
  %62 = getelementptr inbounds i16, ptr %.06379.us, i64 %5
  %63 = getelementptr inbounds i16, ptr %.06478.us, i64 %5
  %64 = add nuw nsw i32 %.06577.us, 1
  %exitcond.not = icmp eq i32 %64, %11
  br i1 %exitcond.not, label %._crit_edge82, label %.preheader.us, !llvm.loop !161

._crit_edge82:                                    ; preds = %._crit_edge.us, %.preheader.lr.ph, %2
  ret void
}